; Function Attrs: mustprogress uwtable
define hidden void @_ZN2cv10PngDecoder15readDataFromBufEPvPhm(ptr noundef %0, ptr noundef writeonly captures(none) %1, i64 noundef %2) #5 align 2 personality ptr @__gxx_personality_v0 {
  %4 = alloca %"class.std::__cxx11::basic_string", align 8
  %5 = alloca %"class.std::allocator.0", align 1
  %6 = tail call ptr @png_get_io_ptr(ptr noundef %0)
  %.not = icmp eq ptr %6, null
  br i1 %.not, label %7, label %17

7:                                                ; preds = %3
  call void @llvm.lifetime.start.p0(i64 32, ptr nonnull %4) #33
  call void @llvm.lifetime.start.p0(i64 1, ptr nonnull %5) #33
  call void @_ZNSt7__cxx1112basic_stringIcSt11char_traitsIcESaIcEEC2EPKcRKS3_(ptr noundef nonnull align 8 dereferenceable(32) %4, ptr noundef nonnull @.str.2, ptr noundef nonnull align 1 dereferenceable(1) %5)
  invoke void @_ZN2cv5errorEiRKNSt7__cxx1112basic_stringIcSt11char_traitsIcESaIcEEEPKcS9_i(i32 noundef -215, ptr noundef nonnull align 8 dereferenceable(32) %4, ptr noundef nonnull @__func__._ZN2cv10PngDecoder15readDataFromBufEPvPhm, ptr noundef nonnull @.str.3, i32 noundef 239) #36
          to label %8 unwind label %9

8:                                                ; preds = %7
  unreachable

9:                                                ; preds = %7
  %10 = landingpad { ptr, i32 }
          cleanup
  %11 = load ptr, ptr %4, align 8, !tbaa !99
  %12 = getelementptr inbounds nuw i8, ptr %4, i64 16
  %13 = icmp eq ptr %11, %12
  br i1 %13, label %_ZNKSt7__cxx1112basic_stringIcSt11char_traitsIcESaIcEE11_M_is_localEv.exit.thread.i.i, label %_ZNKSt7__cxx1112basic_stringIcSt11char_traitsIcESaIcEE11_M_is_localEv.exit.i.i

_ZNKSt7__cxx1112basic_stringIcSt11char_traitsIcESaIcEE11_M_is_localEv.exit.thread.i.i: ; preds = %9
  %14 = getelementptr inbounds nuw i8, ptr %4, i64 8
  %15 = load i64, ptr %14, align 8, !tbaa !41
  %16 = icmp ult i64 %15, 16
  call void @llvm.assume(i1 %16)
  br label %_ZNSt7__cxx1112basic_stringIcSt11char_traitsIcESaIcEED2Ev.exit

_ZNKSt7__cxx1112basic_stringIcSt11char_traitsIcESaIcEE11_M_is_localEv.exit.i.i: ; preds = %9
  call void @_ZdlPv(ptr noundef %11) #32
  br label %_ZNSt7__cxx1112basic_stringIcSt11char_traitsIcESaIcEED2Ev.exit

_ZNSt7__cxx1112basic_stringIcSt11char_traitsIcESaIcEED2Ev.exit: ; preds = %_ZNKSt7__cxx1112basic_stringIcSt11char_traitsIcESaIcEE11_M_is_localEv.exit.i.i, %_ZNKSt7__cxx1112basic_stringIcSt11char_traitsIcESaIcEE11_M_is_localEv.exit.thread.i.i
  call void @llvm.lifetime.end.p0(i64 1, ptr nonnull %5) #33
  call void @llvm.lifetime.end.p0(i64 32, ptr nonnull %4) #33
  resume { ptr, i32 } %10

17:                                               ; preds = %3
  %18 = getelementptr inbounds nuw i8, ptr %6, i64 448
  %19 = load i64, ptr %18, align 8, !tbaa !88
  %20 = add i64 %19, %2
  %21 = getelementptr inbounds nuw i8, ptr %6, i64 100
  %22 = load i32, ptr %21, align 4, !tbaa !28
  %23 = getelementptr inbounds nuw i8, ptr %6, i64 96
  %24 = load i32, ptr %23, align 8, !tbaa !30
  %25 = mul nsw i32 %24, %22
  %26 = sext i32 %25 to i64
  %27 = getelementptr inbounds nuw i8, ptr %6, i64 92
  %28 = load i32, ptr %27, align 4, !tbaa !117
  %29 = icmp sgt i32 %28, 0
  br i1 %29, label %30, label %_ZNK2cv3Mat8elemSizeEv.exit

30:                                               ; preds = %17
  %31 = getelementptr inbounds nuw i8, ptr %6, i64 160
  %32 = load ptr, ptr %31, align 8, !tbaa !118
  %33 = zext nneg i32 %28 to i64
  %34 = getelementptr i64, ptr %32, i64 %33
  %35 = getelementptr i8, ptr %34, i64 -8
  %36 = load i64, ptr %35, align 8, !tbaa !119
  br label %_ZNK2cv3Mat8elemSizeEv.exit

_ZNK2cv3Mat8elemSizeEv.exit:                      ; preds = %17, %30
  %37 = phi i64 [ %36, %30 ], [ 0, %17 ]
  %38 = mul i64 %37, %26
  %39 = icmp ugt i64 %20, %38
  br i1 %39, label %40, label %41

40:                                               ; preds = %_ZNK2cv3Mat8elemSizeEv.exit
  tail call void @png_error(ptr noundef %0, ptr noundef nonnull @.str.4) #36
  unreachable

41:                                               ; preds = %_ZNK2cv3Mat8elemSizeEv.exit
  %42 = getelementptr inbounds nuw i8, ptr %6, i64 104
  %43 = load ptr, ptr %42, align 8, !tbaa !33
  %44 = getelementptr inbounds nuw i8, ptr %43, i64 %19
  tail call void @llvm.memcpy.p0.p0.i64(ptr align 1 %1, ptr align 1 %44, i64 %2, i1 false)
  %45 = load i64, ptr %18, align 8, !tbaa !88
  %46 = add i64 %45, %2
  store i64 %46, ptr %18, align 8, !tbaa !88
  ret void
}